target datalayout = "e-m:e-p270:32:32-p271:32:32-p272:64:64-i64:64-i128:128-f80:128-n8:16:32:64-S128"
target triple = "x86_64-pc-linux-gnu"

@.str.24 = private unnamed_addr constant [28 x i8] c"../openssl/test/test_test.c\00", align 1
@.str.25 = private unnamed_addr constant [2 x i8] c"1\00", align 1
@stderr = external global ptr, align 8
@.str.47 = private unnamed_addr constant [19 x i8] c"# FATAL: %s != %d\0A\00", align 1
@.str.223 = private unnamed_addr constant [13 x i8] c"TEST_true(0)\00", align 1
@.str.224 = private unnamed_addr constant [2 x i8] c"0\00", align 1
@.str.225 = private unnamed_addr constant [13 x i8] c"TEST_true(1)\00", align 1
@.str.226 = private unnamed_addr constant [14 x i8] c"TEST_false(0)\00", align 1
@.str.227 = private unnamed_addr constant [14 x i8] c"TEST_false(1)\00", align 1

; Function Attrs: nounwind uwtable
define internal i32 @test_case(i32 noundef %0, ptr noundef %1, i32 noundef %2) #0 {
  %4 = alloca i32, align 4
  %5 = alloca i32, align 4
  %6 = alloca ptr, align 8
  %7 = alloca i32, align 4
  store i32 %0, ptr %5, align 4, !tbaa !4
  store ptr %1, ptr %6, align 8, !tbaa !9
  store i32 %2, ptr %7, align 4, !tbaa !4
  %8 = load i32, ptr %7, align 4, !tbaa !4
  %9 = load i32, ptr %5, align 4, !tbaa !4
  %10 = icmp ne i32 %8, %9
  br i1 %10, label %11, label %16

11:                                               ; preds = %3
  %12 = load ptr, ptr @stderr, align 8, !tbaa !16
  %13 = load ptr, ptr %6, align 8, !tbaa !9
  %14 = load i32, ptr %5, align 4, !tbaa !4
  %15 = call i32 (ptr, ptr, ...) @fprintf(ptr noundef %12, ptr noundef @.str.47, ptr noundef %13, i32 noundef %14) #7
  store i32 0, ptr %4, align 4
  br label %17

16:                                               ; preds = %3
  store i32 1, ptr %4, align 4
  br label %17

17:                                               ; preds = %16, %11
  %18 = load i32, ptr %4, align 4
  ret i32 %18
}

; Function Attrs: nounwind uwtable
define internal i32 @test_bool() #0 {
  %1 = alloca i32, align 4
  %2 = call i32 @test_true(ptr noundef @.str.24, i32 noundef 245, ptr noundef @.str.224, i32 noundef 0)
  %3 = call i32 @test_case(i32 noundef 0, ptr noundef @.str.223, i32 noundef %2)
  %4 = icmp ne i32 %3, 0
  br i1 %4, label %5, label %17

5:                                                ; preds = %0
  %6 = call i32 @test_true(ptr noundef @.str.24, i32 noundef 246, ptr noundef @.str.25, i32 noundef 1)
  %7 = call i32 @test_case(i32 noundef 1, ptr noundef @.str.225, i32 noundef %6)
  %8 = icmp ne i32 %7, 0
  br i1 %8, label %9, label %17

9:                                                ; preds = %5
  %10 = call i32 @test_false(ptr noundef @.str.24, i32 noundef 247, ptr noundef @.str.224, i32 noundef 0)
  %11 = call i32 @test_case(i32 noundef 1, ptr noundef @.str.226, i32 noundef %10)
  %12 = icmp ne i32 %11, 0
  br i1 %12, label %13, label %17

13:                                               ; preds = %9
  %14 = call i32 @test_false(ptr noundef @.str.24, i32 noundef 248, ptr noundef @.str.25, i32 noundef 1)
  %15 = call i32 @test_case(i32 noundef 0, ptr noundef @.str.227, i32 noundef %14)
  %16 = icmp ne i32 %15, 0
  br i1 %16, label %18, label %17

17:                                               ; preds = %13, %9, %5, %0
  br label %19

18:                                               ; preds = %13
  store i32 1, ptr %1, align 4
  br label %20

19:                                               ; preds = %17
  store i32 0, ptr %1, align 4
  br label %20

20:                                               ; preds = %19, %18
  %21 = load i32, ptr %1, align 4
  ret i32 %21
}