; Function Attrs: nounwind uwtable
define internal range(i32 0, 2) i32 @test_bool() #0 {
  %1 = tail call i32 @test_true(ptr noundef nonnull @.str.24, i32 noundef 245, ptr noundef nonnull @.str.224, i32 noundef 0) #5
  %.not.i = icmp eq i32 %1, 0
  br i1 %.not.i, label %test_case.exit, label %test_case.exit.thread

test_case.exit.thread:                            ; preds = %0
  %2 = load ptr, ptr @stderr, align 8, !tbaa !4
  %3 = tail call i32 (ptr, ptr, ...) @fprintf(ptr noundef %2, ptr noundef nonnull @.str.47, ptr noundef nonnull @.str.223, i32 noundef 0) #6
  br label %test_case.exit12

test_case.exit:                                   ; preds = %0
  %4 = tail call i32 @test_true(ptr noundef nonnull @.str.24, i32 noundef 246, ptr noundef nonnull @.str.25, i32 noundef 1) #5
  %.not.i4 = icmp eq i32 %4, 1
  br i1 %.not.i4, label %test_case.exit6, label %test_case.exit6.thread

test_case.exit6.thread:                           ; preds = %test_case.exit
  %5 = load ptr, ptr @stderr, align 8, !tbaa !4
  %6 = tail call i32 (ptr, ptr, ...) @fprintf(ptr noundef %5, ptr noundef nonnull @.str.47, ptr noundef nonnull @.str.225, i32 noundef 1) #6
  br label %test_case.exit12

test_case.exit6:                                  ; preds = %test_case.exit
  %7 = tail call i32 @test_false(ptr noundef nonnull @.str.24, i32 noundef 247, ptr noundef nonnull @.str.224, i32 noundef 0) #5
  %.not.i7 = icmp eq i32 %7, 1
  br i1 %.not.i7, label %test_case.exit9, label %test_case.exit9.thread

test_case.exit9.thread:                           ; preds = %test_case.exit6
  %8 = load ptr, ptr @stderr, align 8, !tbaa !4
  %9 = tail call i32 (ptr, ptr, ...) @fprintf(ptr noundef %8, ptr noundef nonnull @.str.47, ptr noundef nonnull @.str.226, i32 noundef 1) #6
  br label %test_case.exit12

test_case.exit9:                                  ; preds = %test_case.exit6
  %10 = tail call i32 @test_false(ptr noundef nonnull @.str.24, i32 noundef 248, ptr noundef nonnull @.str.25, i32 noundef 1) #5
  %.not.i10 = icmp eq i32 %10, 0
  br i1 %.not.i10, label %test_case.exit12, label %test_case.exit12.thread

test_case.exit12.thread:                          ; preds = %test_case.exit9
  %11 = load ptr, ptr @stderr, align 8, !tbaa !4
  %12 = tail call i32 (ptr, ptr, ...) @fprintf(ptr noundef %11, ptr noundef nonnull @.str.47, ptr noundef nonnull @.str.227, i32 noundef 0) #6
  br label %test_case.exit12

test_case.exit12:                                 ; preds = %test_case.exit.thread, %test_case.exit6.thread, %test_case.exit9.thread, %test_case.exit12.thread, %test_case.exit9
  %.0 = phi i32 [ 1, %test_case.exit9 ], [ 0, %test_case.exit12.thread ], [ 0, %test_case.exit9.thread ], [ 0, %test_case.exit6.thread ], [ 0, %test_case.exit.thread ]
  ret i32 %.0
}